	.file	"Arduino-big-joystick.c"
__SP_H__ = 0x3e
__SP_L__ = 0x3d
__SREG__ = 0x3f
__tmp_reg__ = 0
__zero_reg__ = 1
	.text
.Ltext0:
	.cfi_sections	.debug_frame
	.section	.text.SetupHardware,"ax",@progbits
.global	SetupHardware
	.type	SetupHardware, @function
SetupHardware:
.LFB87:
	.file 1 "Arduino-big-joystick.c"
	.loc 1 124 0
	.cfi_startproc
	push r28
.LCFI0:
	.cfi_def_cfa_offset 3
	.cfi_offset 28, -2
	push r29
.LCFI1:
	.cfi_def_cfa_offset 4
	.cfi_offset 29, -3
/* prologue: function */
/* frame size = 0 */
/* stack size = 2 */
.L__stack_usage = 2
	.loc 1 126 0
	in r24,0x34
	andi r24,lo8(-9)
	out 0x34,r24
	.loc 1 127 0
	ldi r24,lo8(24)
/* #APP */
 ;  127 "Arduino-big-joystick.c" 1
	in __tmp_reg__, __SREG__
	cli
	sts 96, r24
	sts 96, __zero_reg__
	out __SREG__,__tmp_reg__
	
 ;  0 "" 2
.LVL0:
/* #NOAPP */
.LBB50:
.LBB51:
	.file 2 "../../LUFA/Drivers/Peripheral/Serial.h"
	.loc 2 102 0
	ldi r24,lo8(16)
	ldi r25,0
	sts 204+1,r25
	sts 204,r24
	.loc 2 104 0
	ldi r24,lo8(6)
	sts 202,r24
	.loc 2 105 0
	ldi r24,lo8(2)
	sts 200,r24
	.loc 2 106 0
	ldi r28,lo8(-55)
	ldi r29,0
	ldi r24,lo8(24)
	st Y,r24
	.loc 2 108 0
	sbi 0xa,3
	.loc 2 109 0
	sbi 0xb,2
.LBE51:
.LBE50:
.LBB52:
.LBB53:
	.file 3 "./Board/LEDs.h"
	.loc 3 69 0
	in r24,0xa
	ori r24,lo8(48)
	out 0xa,r24
	.loc 3 70 0
	in r24,0xb
	ori r24,lo8(48)
	out 0xb,r24
.LBE53:
.LBE52:
	.loc 1 132 0
	call USB_Init
.LVL1:
	.loc 1 134 0
	ldi r24,lo8(-104)
	st Y,r24
/* epilogue start */
	.loc 1 135 0
	pop r29
	pop r28
	ret
	.cfi_endproc
.LFE87:
	.size	SetupHardware, .-SetupHardware
	.section	.text.startup.main,"ax",@progbits
.global	main
	.type	main, @function
main:
.LFB86:
	.loc 1 101 0
	.cfi_startproc
/* prologue: function */
/* frame size = 0 */
/* stack size = 0 */
.L__stack_usage = 0
	.loc 1 102 0
	call SetupHardware
.LVL2:
.LBB63:
.LBB64:
	.file 4 "Lib/LightweightRingBuff.h"
	.loc 4 87 0
	in r18,__SREG__
.LVL3:
.LBB65:
.LBB66:
	.file 5 "/usr/lib/avr/include/util/atomic.h"
	.loc 5 50 0
/* #APP */
 ;  50 "/usr/lib/avr/include/util/atomic.h" 1
	cli
 ;  0 "" 2
.LVL4:
/* #NOAPP */
.LBE66:
.LBE65:
	.loc 4 89 0
	ldi r24,lo8(USARTtoUSB_Buffer)
	ldi r25,hi8(USARTtoUSB_Buffer)
	sts USARTtoUSB_Buffer+126+1,r25
	sts USARTtoUSB_Buffer+126,r24
	.loc 4 90 0
	sts USARTtoUSB_Buffer+128+1,r25
	sts USARTtoUSB_Buffer+128,r24
.LVL5:
.LBB67:
.LBB68:
	.loc 5 70 0
	out __SREG__,r18
	.loc 5 71 0
.LBE68:
.LBE67:
.LBE64:
.LBE63:
	.loc 1 106 0
/* #APP */
 ;  106 "Arduino-big-joystick.c" 1
	sei
 ;  0 "" 2
.LVL6:
/* #NOAPP */
.L4:
	.loc 1 109 0
	ldi r24,lo8(Joystick_HID_Interface)
	ldi r25,hi8(Joystick_HID_Interface)
	call HID_Device_USBTask
.LVL7:
	.loc 1 110 0
	call USB_USBTask
.LVL8:
	.loc 1 113 0
	lds r24,led1_ticks
	lds r25,led1_ticks+1
	or r24,r25
	breq .L4
	.loc 1 114 0
	lds r24,led1_ticks
	lds r25,led1_ticks+1
	sbiw r24,1
	sts led1_ticks+1,r25
	sts led1_ticks,r24
	.loc 1 115 0
	lds r24,led1_ticks
	lds r25,led1_ticks+1
	or r24,r25
	brne .L4
.LVL9:
.LBB69:
.LBB70:
	.loc 3 80 0
	sbi 0xb,5
	rjmp .L4
.LBE70:
.LBE69:
	.cfi_endproc
.LFE86:
	.size	main, .-main
	.section	.text.EVENT_USB_Device_Connect,"ax",@progbits
.global	EVENT_USB_Device_Connect
	.type	EVENT_USB_Device_Connect, @function
EVENT_USB_Device_Connect:
.LFB88:
	.loc 1 139 0
	.cfi_startproc
/* prologue: function */
/* frame size = 0 */
/* stack size = 0 */
.L__stack_usage = 0
	ret
	.cfi_endproc
.LFE88:
	.size	EVENT_USB_Device_Connect, .-EVENT_USB_Device_Connect
	.section	.text.EVENT_USB_Device_Disconnect,"ax",@progbits
.global	EVENT_USB_Device_Disconnect
	.type	EVENT_USB_Device_Disconnect, @function
EVENT_USB_Device_Disconnect:
.LFB89:
	.loc 1 145 0
	.cfi_startproc
/* prologue: function */
/* frame size = 0 */
/* stack size = 0 */
.L__stack_usage = 0
	ret
	.cfi_endproc
.LFE89:
	.size	EVENT_USB_Device_Disconnect, .-EVENT_USB_Device_Disconnect
	.section	.text.EVENT_USB_Device_ConfigurationChanged,"ax",@progbits
.global	EVENT_USB_Device_ConfigurationChanged
	.type	EVENT_USB_Device_ConfigurationChanged, @function
EVENT_USB_Device_ConfigurationChanged:
.LFB90:
	.loc 1 150 0
	.cfi_startproc
/* prologue: function */
/* frame size = 0 */
/* stack size = 0 */
.L__stack_usage = 0
	.loc 1 151 0
	ldi r24,lo8(Joystick_HID_Interface)
	ldi r25,hi8(Joystick_HID_Interface)
	call HID_Device_ConfigureEndpoints
.LVL10:
.LBB71:
.LBB72:
	.file 6 "../../LUFA/Drivers/USB/HighLevel/../LowLevel/Device.h"
	.loc 6 150 0
	ldi r30,lo8(-30)
	ldi r31,0
	ld r24,Z
	ori r24,lo8(4)
	st Z,r24
	ret
.LBE72:
.LBE71:
	.cfi_endproc
.LFE90:
	.size	EVENT_USB_Device_ConfigurationChanged, .-EVENT_USB_Device_ConfigurationChanged
	.section	.text.EVENT_USB_Device_UnhandledControlRequest,"ax",@progbits
.global	EVENT_USB_Device_UnhandledControlRequest
	.type	EVENT_USB_Device_UnhandledControlRequest, @function
EVENT_USB_Device_UnhandledControlRequest:
.LFB91:
	.loc 1 158 0
	.cfi_startproc
/* prologue: function */
/* frame size = 0 */
/* stack size = 0 */
.L__stack_usage = 0
	.loc 1 159 0
	ldi r24,lo8(Joystick_HID_Interface)
	ldi r25,hi8(Joystick_HID_Interface)
	jmp HID_Device_ProcessControlRequest
.LVL11:
	.cfi_endproc
.LFE91:
	.size	EVENT_USB_Device_UnhandledControlRequest, .-EVENT_USB_Device_UnhandledControlRequest
	.section	.text.EVENT_USB_Device_StartOfFrame,"ax",@progbits
.global	EVENT_USB_Device_StartOfFrame
	.type	EVENT_USB_Device_StartOfFrame, @function
EVENT_USB_Device_StartOfFrame:
.LFB92:
	.loc 1 164 0
	.cfi_startproc
/* prologue: function */
/* frame size = 0 */
/* stack size = 0 */
.L__stack_usage = 0
.LVL12:
.LBB73:
.LBB74:
	.file 7 "../../LUFA/Drivers/USB/Class/Device/HID.h"
	.loc 7 201 0
	lds r24,Joystick_HID_Interface+11
	lds r25,Joystick_HID_Interface+11+1
	sbiw r24,0
	breq .L13
	.loc 7 202 0
	sbiw r24,1
	sts Joystick_HID_Interface+11+1,r25
	sts Joystick_HID_Interface+11,r24
.L13:
	ret
.LBE74:
.LBE73:
	.cfi_endproc
.LFE92:
	.size	EVENT_USB_Device_StartOfFrame, .-EVENT_USB_Device_StartOfFrame
	.section	.text.CALLBACK_HID_Device_CreateHIDReport,"ax",@progbits
.global	CALLBACK_HID_Device_CreateHIDReport
	.type	CALLBACK_HID_Device_CreateHIDReport, @function
CALLBACK_HID_Device_CreateHIDReport:
.LFB93:
	.loc 1 184 0
	.cfi_startproc
.LVL13:
	push r16
.LCFI2:
	.cfi_def_cfa_offset 3
	.cfi_offset 16, -2
	push r17
.LCFI3:
	.cfi_def_cfa_offset 4
	.cfi_offset 17, -3
	push r28
.LCFI4:
	.cfi_def_cfa_offset 5
	.cfi_offset 28, -4
	push r29
.LCFI5:
	.cfi_def_cfa_offset 6
	.cfi_offset 29, -5
/* prologue: function */
/* frame size = 0 */
/* stack size = 4 */
.L__stack_usage = 4
.LVL14:
.LBB92:
.LBB93:
.LBB94:
	.loc 4 111 0
	in r25,__SREG__
.LVL15:
.LBB95:
.LBB96:
	.loc 5 50 0
/* #APP */
 ;  50 "/usr/lib/avr/include/util/atomic.h" 1
	cli
 ;  0 "" 2
.LVL16:
/* #NOAPP */
.LBE96:
.LBE95:
	.loc 4 113 0
	lds r24,USARTtoUSB_Buffer+130
.LVL17:
.LBB97:
.LBB98:
	.loc 5 70 0
	out __SREG__,r25
	.loc 5 71 0
.LBE98:
.LBE97:
.LBE94:
.LBE93:
.LBE92:
	.loc 1 192 0
	cpi r24,lo8(21)
	brlo .L19
	ldi r28,lo8(joyReport)
	ldi r29,hi8(joyReport)
.LBB99:
.LBB100:
.LBB101:
	.loc 4 187 0
	ldi r24,lo8(USARTtoUSB_Buffer)
	ldi r25,hi8(USARTtoUSB_Buffer)
.LVL18:
.L22:
	.loc 4 184 0 discriminator 2
	lds r30,USARTtoUSB_Buffer+128
	lds r31,USARTtoUSB_Buffer+128+1
	ld r21,Z+
.LVL19:
	.loc 4 186 0 discriminator 2
	sts USARTtoUSB_Buffer+128+1,r31
	sts USARTtoUSB_Buffer+128,r30
	subi r30,lo8(USARTtoUSB_Buffer+126)
	sbci r31,hi8(USARTtoUSB_Buffer+126)
	brne .L20
	.loc 4 187 0
	sts USARTtoUSB_Buffer+128+1,r25
	sts USARTtoUSB_Buffer+128,r24
.L20:
.LBB102:
	.loc 4 189 0
	in r22,__SREG__
.LVL20:
.LBB103:
.LBB104:
	.loc 5 50 0
/* #APP */
 ;  50 "/usr/lib/avr/include/util/atomic.h" 1
	cli
 ;  0 "" 2
.LVL21:
/* #NOAPP */
.LBE104:
.LBE103:
	.loc 4 191 0
	lds r20,USARTtoUSB_Buffer+130
	subi r20,lo8(-(-1))
	sts USARTtoUSB_Buffer+130,r20
.LVL22:
.LBB105:
.LBB106:
	.loc 5 70 0
	out __SREG__,r22
	.loc 5 71 0
.LBE106:
.LBE105:
.LBE102:
.LBE101:
.LBE100:
	.loc 1 195 0
	st Y+,r21
.LVL23:
	.loc 1 194 0
	ldi r30,hi8(joyReport+21)
	cpi r28,lo8(joyReport+21)
	cpc r29,r30
	brne .L22
.LVL24:
.LBB107:
.LBB108:
	.loc 3 75 0
	cbi 0xb,5
.LBE108:
.LBE107:
	.loc 1 199 0
	ldi r24,lo8(-48)
	ldi r25,lo8(7)
	sts led1_ticks+1,r25
	sts led1_ticks,r24
.LVL25:
.L19:
.LBE99:
	.loc 1 202 0
	ldi r24,lo8(21)
	ldi r30,lo8(joyReport)
	ldi r31,hi8(joyReport)
	movw r26,r18
	0:
	ld r0,Z+
	st X+,r0
	dec r24
	brne 0b
	.loc 1 204 0
	ldi r24,lo8(21)
	ldi r25,0
	movw r30,r16
	std Z+1,r25
	st Z,r24
	.loc 1 206 0
	ldi r24,0
/* epilogue start */
	pop r29
	pop r28
	pop r17
	pop r16
.LVL26:
	ret
	.cfi_endproc
.LFE93:
	.size	CALLBACK_HID_Device_CreateHIDReport, .-CALLBACK_HID_Device_CreateHIDReport
	.section	.text.CALLBACK_HID_Device_ProcessHIDReport,"ax",@progbits
.global	CALLBACK_HID_Device_ProcessHIDReport
	.type	CALLBACK_HID_Device_ProcessHIDReport, @function
CALLBACK_HID_Device_ProcessHIDReport:
.LFB94:
	.loc 1 221 0
	.cfi_startproc
.LVL27:
/* prologue: function */
/* frame size = 0 */
/* stack size = 0 */
.L__stack_usage = 0
	ret
	.cfi_endproc
.LFE94:
	.size	CALLBACK_HID_Device_ProcessHIDReport, .-CALLBACK_HID_Device_ProcessHIDReport
	.section	.text.__vector_23,"ax",@progbits
.global	__vector_23
	.type	__vector_23, @function
__vector_23:
.LFB95:
	.loc 1 229 0
	.cfi_startproc
	.loc 1 229 0
	push r1
.LCFI6:
	.cfi_def_cfa_offset 3
	.cfi_offset 1, -2
	push r0
.LCFI7:
	.cfi_def_cfa_offset 4
	.cfi_offset 0, -3
	in r0,__SREG__
	push r0
	clr __zero_reg__
	push r18
.LCFI8:
	.cfi_def_cfa_offset 5
	.cfi_offset 18, -4
	push r24
.LCFI9:
	.cfi_def_cfa_offset 6
	.cfi_offset 24, -5
	push r25
.LCFI10:
	.cfi_def_cfa_offset 7
	.cfi_offset 25, -6
	push r30
.LCFI11:
	.cfi_def_cfa_offset 8
	.cfi_offset 30, -7
	push r31
.LCFI12:
	.cfi_def_cfa_offset 9
	.cfi_offset 31, -8
/* prologue: Signal */
/* frame size = 0 */
/* stack size = 8 */
.L__stack_usage = 8
	.loc 1 230 0
	lds r24,206
.LVL28:
	.loc 1 232 0
	in r25,0x1e
	cpi r25,lo8(4)
	brne .L24
.LVL29:
.LBB125:
.LBB126:
.LBB127:
.LBB128:
	.loc 4 111 0
	in r18,__SREG__
.LVL30:
.LBB129:
.LBB130:
	.loc 5 50 0
/* #APP */
 ;  50 "/usr/lib/avr/include/util/atomic.h" 1
	cli
 ;  0 "" 2
.LVL31:
/* #NOAPP */
.LBE130:
.LBE129:
	.loc 4 113 0
	lds r25,USARTtoUSB_Buffer+130
.LVL32:
.LBB131:
.LBB132:
	.loc 5 70 0
	out __SREG__,r18
	.loc 5 71 0
.LBE132:
.LBE131:
.LBE128:
.LBE127:
.LBE126:
.LBE125:
	.loc 1 232 0
	cpi r25,lo8(126)
	breq .L24
.LVL33:
.LBB133:
.LBB134:
	.loc 4 161 0
	lds r30,USARTtoUSB_Buffer+126
	lds r31,USARTtoUSB_Buffer+126+1
	st Z,r24
	.loc 4 163 0
	lds r30,USARTtoUSB_Buffer+126
	lds r31,USARTtoUSB_Buffer+126+1
	movw r24,r30
.LVL34:
	adiw r24,1
	sts USARTtoUSB_Buffer+126+1,r25
	sts USARTtoUSB_Buffer+126,r24
	subi r24,lo8(USARTtoUSB_Buffer+126)
	sbci r25,hi8(USARTtoUSB_Buffer+126)
.LVL35:
	brne .L28
	.loc 4 164 0
	ldi r24,lo8(USARTtoUSB_Buffer)
	ldi r25,hi8(USARTtoUSB_Buffer)
	std Z+2,r25
	std Z+1,r24
.L28:
.LBB135:
	.loc 4 166 0
	in r25,__SREG__
.LVL36:
.LBB136:
.LBB137:
	.loc 5 50 0
/* #APP */
 ;  50 "/usr/lib/avr/include/util/atomic.h" 1
	cli
 ;  0 "" 2
.LVL37:
/* #NOAPP */
.LBE137:
.LBE136:
	.loc 4 168 0
	lds r24,USARTtoUSB_Buffer+130
	subi r24,lo8(-(1))
	sts USARTtoUSB_Buffer+130,r24
.LVL38:
.LBB138:
.LBB139:
	.loc 5 70 0
	out __SREG__,r25
	.loc 5 71 0
.LVL39:
.L24:
/* epilogue start */
.LBE139:
.LBE138:
.LBE135:
.LBE134:
.LBE133:
	.loc 1 236 0
	pop r31
	pop r30
	pop r25
	pop r24
	pop r18
	pop r0
	out __SREG__,r0
	pop r0
	pop r1
	reti
	.cfi_endproc
.LFE95:
	.size	__vector_23, .-__vector_23
.global	led1_ticks
	.section .bss
	.type	led1_ticks, @object
	.size	led1_ticks, 2
led1_ticks:
	.zero	2
.global	joyReport
	.type	joyReport, @object
	.size	joyReport, 21
joyReport:
	.zero	21
	.comm	USARTtoUSB_Buffer,131,1
.global	Joystick_HID_Interface
	.data
	.type	Joystick_HID_Interface, @object
	.size	Joystick_HID_Interface, 13
Joystick_HID_Interface:
	.byte	0
	.byte	1
	.word	8
	.byte	0
	.word	PrevJoystickHIDReportBuffer
	.byte	21
	.zero	5
	.comm	PrevJoystickHIDReportBuffer,21,1
	.text
.Letext0:
	.file 8 "/usr/lib/avr/include/stdint.h"
	.file 9 "Arduino-joystick.h"
	.file 10 "../../LUFA/Drivers/USB/HighLevel/../LowLevel/USBController.h"
	.file 11 "../../LUFA/Drivers/USB/HighLevel/USBTask.h"