	.file	"Arduino-mouse.c"
__SP_H__ = 0x3e
__SP_L__ = 0x3d
__SREG__ = 0x3f
__tmp_reg__ = 0
__zero_reg__ = 1
	.text
.Ltext0:
	.cfi_sections	.debug_frame
	.section	.text.RingBuffer_Remove.constprop.3,"ax",@progbits
	.type	RingBuffer_Remove.constprop.3, @function
RingBuffer_Remove.constprop.3:
.LFB101:
	.file 1 "Lib/LightweightRingBuff.h"
	.loc 1 182 0
	.cfi_startproc
/* prologue: function */
/* frame size = 0 */
/* stack size = 0 */
.L__stack_usage = 0
.LVL0:
	.loc 1 184 0
	lds r30,USARTtoUSB_Buffer+130
	lds r31,USARTtoUSB_Buffer+130+1
	ld r24,Z+
.LVL1:
	.loc 1 186 0
	sts USARTtoUSB_Buffer+130+1,r31
	sts USARTtoUSB_Buffer+130,r30
	subi r30,lo8(USARTtoUSB_Buffer+128)
	sbci r31,hi8(USARTtoUSB_Buffer+128)
	brne .L2
	.loc 1 187 0
	ldi r18,lo8(USARTtoUSB_Buffer)
	ldi r19,hi8(USARTtoUSB_Buffer)
	sts USARTtoUSB_Buffer+130+1,r19
	sts USARTtoUSB_Buffer+130,r18
.L2:
.LBB51:
	.loc 1 189 0
	in r18,__SREG__
.LVL2:
.LBB52:
.LBB53:
	.file 2 "/usr/lib/avr/include/util/atomic.h"
	.loc 2 50 0
/* #APP */
 ;  50 "/usr/lib/avr/include/util/atomic.h" 1
	cli
 ;  0 "" 2
.LVL3:
/* #NOAPP */
.LBE53:
.LBE52:
	.loc 1 191 0
	lds r25,USARTtoUSB_Buffer+132
	subi r25,lo8(-(-1))
	sts USARTtoUSB_Buffer+132,r25
.LVL4:
.LBB54:
.LBB55:
	.loc 2 70 0
	out __SREG__,r18
	.loc 2 71 0
.LBE55:
.LBE54:
.LBE51:
	.loc 1 195 0
	ret
	.cfi_endproc
.LFE101:
	.size	RingBuffer_Remove.constprop.3, .-RingBuffer_Remove.constprop.3
	.section	.text.SetupHardware,"ax",@progbits
.global	SetupHardware
	.type	SetupHardware, @function
SetupHardware:
.LFB87:
	.file 3 "Arduino-mouse.c"
	.loc 3 129 0
	.cfi_startproc
	push r28
.LCFI0:
	.cfi_def_cfa_offset 3
	.cfi_offset 28, -2
	push r29
.LCFI1:
	.cfi_def_cfa_offset 4
	.cfi_offset 29, -3
/* prologue: function */
/* frame size = 0 */
/* stack size = 2 */
.L__stack_usage = 2
	.loc 3 131 0
	in r24,0x34
	andi r24,lo8(-9)
	out 0x34,r24
	.loc 3 132 0
	ldi r24,lo8(24)
/* #APP */
 ;  132 "Arduino-mouse.c" 1
	in __tmp_reg__, __SREG__
	cli
	sts 96, r24
	sts 96, __zero_reg__
	out __SREG__,__tmp_reg__
	
 ;  0 "" 2
.LVL5:
/* #NOAPP */
.LBB58:
.LBB59:
	.file 4 "../../LUFA/Drivers/Peripheral/Serial.h"
	.loc 4 102 0
	ldi r24,lo8(103)
	ldi r25,0
	sts 204+1,r25
	sts 204,r24
	.loc 4 104 0
	ldi r24,lo8(6)
	sts 202,r24
	.loc 4 105 0
	sts 200,__zero_reg__
	.loc 4 106 0
	ldi r28,lo8(-55)
	ldi r29,0
	ldi r24,lo8(24)
	st Y,r24
	.loc 4 108 0
	sbi 0xa,3
	.loc 4 109 0
	sbi 0xb,2
.LBE59:
.LBE58:
	.loc 3 136 0
	call USB_Init
.LVL6:
	.loc 3 139 0
	ldi r24,lo8(4)
	out 0x25,r24
	.loc 3 141 0
	ldi r24,lo8(-104)
	st Y,r24
/* epilogue start */
	.loc 3 142 0
	pop r29
	pop r28
	ret
	.cfi_endproc
.LFE87:
	.size	SetupHardware, .-SetupHardware
	.section	.text.startup.main,"ax",@progbits
.global	main
	.type	main, @function
main:
.LFB86:
	.loc 3 97 0
	.cfi_startproc
/* prologue: function */
/* frame size = 0 */
/* stack size = 0 */
.L__stack_usage = 0
	.loc 3 101 0
	call SetupHardware
.LVL7:
.LBB75:
.LBB76:
	.loc 1 87 0
	in r18,__SREG__
.LVL8:
.LBB77:
.LBB78:
	.loc 2 50 0
/* #APP */
 ;  50 "/usr/lib/avr/include/util/atomic.h" 1
	cli
 ;  0 "" 2
.LVL9:
/* #NOAPP */
.LBE78:
.LBE77:
	.loc 1 89 0
	ldi r24,lo8(USARTtoUSB_Buffer)
	ldi r25,hi8(USARTtoUSB_Buffer)
	sts USARTtoUSB_Buffer+128+1,r25
	sts USARTtoUSB_Buffer+128,r24
	.loc 1 90 0
	sts USARTtoUSB_Buffer+130+1,r25
	sts USARTtoUSB_Buffer+130,r24
.LVL10:
.LBB79:
.LBB80:
	.loc 2 70 0
	out __SREG__,r18
	.loc 2 71 0
.LBE80:
.LBE79:
.LBE76:
.LBE75:
	.loc 3 105 0
/* #APP */
 ;  105 "Arduino-mouse.c" 1
	sei
 ;  0 "" 2
.LVL11:
/* #NOAPP */
.L7:
.LBB81:
.LBB82:
.LBB83:
.LBB84:
	.loc 1 111 0
	in r25,__SREG__
.LVL12:
.LBB85:
.LBB86:
	.loc 2 50 0
/* #APP */
 ;  50 "/usr/lib/avr/include/util/atomic.h" 1
	cli
 ;  0 "" 2
.LVL13:
/* #NOAPP */
.LBE86:
.LBE85:
	.loc 1 113 0
	lds r24,USARTtoUSB_Buffer+132
.LVL14:
.LBB87:
.LBB88:
	.loc 2 70 0
	out __SREG__,r25
	.loc 2 71 0
.LBE88:
.LBE87:
.LBE84:
.LBE83:
.LBE82:
	.loc 3 110 0
	cpi r24,lo8(4)
	brlo .L6
.LVL15:
	.loc 3 112 0
	call RingBuffer_Remove.constprop.3
.LVL16:
	mov r17,r24
.LVL17:
	call RingBuffer_Remove.constprop.3
.LVL18:
	mov r29,r24
.LVL19:
	call RingBuffer_Remove.constprop.3
.LVL20:
	mov r28,r24
.LVL21:
	.loc 3 115 0
	call RingBuffer_Remove.constprop.3
.LVL22:
	.loc 3 117 0
	sts mouseReport,r17
	.loc 3 118 0
	sts mouseReport+1,r29
	.loc 3 119 0
	sts mouseReport+2,r28
.LVL23:
.L6:
	.loc 3 122 0
	ldi r24,lo8(Mouse_HID_Interface)
	ldi r25,hi8(Mouse_HID_Interface)
	call HID_Device_USBTask
.LVL24:
	.loc 3 123 0
	call USB_USBTask
.LVL25:
.LBE81:
	.loc 3 124 0
	rjmp .L7
	.cfi_endproc
.LFE86:
	.size	main, .-main
	.section	.text.EVENT_USB_Device_Connect,"ax",@progbits
.global	EVENT_USB_Device_Connect
	.type	EVENT_USB_Device_Connect, @function
EVENT_USB_Device_Connect:
.LFB88:
	.loc 3 146 0
	.cfi_startproc
/* prologue: function */
/* frame size = 0 */
/* stack size = 0 */
.L__stack_usage = 0
	ret
	.cfi_endproc
.LFE88:
	.size	EVENT_USB_Device_Connect, .-EVENT_USB_Device_Connect
	.section	.text.EVENT_USB_Device_Disconnect,"ax",@progbits
.global	EVENT_USB_Device_Disconnect
	.type	EVENT_USB_Device_Disconnect, @function
EVENT_USB_Device_Disconnect:
.LFB89:
	.loc 3 152 0
	.cfi_startproc
/* prologue: function */
/* frame size = 0 */
/* stack size = 0 */
.L__stack_usage = 0
	ret
	.cfi_endproc
.LFE89:
	.size	EVENT_USB_Device_Disconnect, .-EVENT_USB_Device_Disconnect
	.section	.text.EVENT_USB_Device_ConfigurationChanged,"ax",@progbits
.global	EVENT_USB_Device_ConfigurationChanged
	.type	EVENT_USB_Device_ConfigurationChanged, @function
EVENT_USB_Device_ConfigurationChanged:
.LFB90:
	.loc 3 157 0
	.cfi_startproc
/* prologue: function */
/* frame size = 0 */
/* stack size = 0 */
.L__stack_usage = 0
	.loc 3 158 0
	ldi r24,lo8(Mouse_HID_Interface)
	ldi r25,hi8(Mouse_HID_Interface)
	call HID_Device_ConfigureEndpoints
.LVL26:
.LBB89:
.LBB90:
	.file 5 "../../LUFA/Drivers/USB/HighLevel/../LowLevel/Device.h"
	.loc 5 150 0
	ldi r30,lo8(-30)
	ldi r31,0
	ld r24,Z
	ori r24,lo8(4)
	st Z,r24
	ret
.LBE90:
.LBE89:
	.cfi_endproc
.LFE90:
	.size	EVENT_USB_Device_ConfigurationChanged, .-EVENT_USB_Device_ConfigurationChanged
	.section	.text.EVENT_USB_Device_UnhandledControlRequest,"ax",@progbits
.global	EVENT_USB_Device_UnhandledControlRequest
	.type	EVENT_USB_Device_UnhandledControlRequest, @function
EVENT_USB_Device_UnhandledControlRequest:
.LFB91:
	.loc 3 165 0
	.cfi_startproc
/* prologue: function */
/* frame size = 0 */
/* stack size = 0 */
.L__stack_usage = 0
	.loc 3 166 0
	ldi r24,lo8(Mouse_HID_Interface)
	ldi r25,hi8(Mouse_HID_Interface)
	jmp HID_Device_ProcessControlRequest
.LVL27:
	.cfi_endproc
.LFE91:
	.size	EVENT_USB_Device_UnhandledControlRequest, .-EVENT_USB_Device_UnhandledControlRequest
	.section	.text.EVENT_USB_Device_StartOfFrame,"ax",@progbits
.global	EVENT_USB_Device_StartOfFrame
	.type	EVENT_USB_Device_StartOfFrame, @function
EVENT_USB_Device_StartOfFrame:
.LFB92:
	.loc 3 171 0
	.cfi_startproc
/* prologue: function */
/* frame size = 0 */
/* stack size = 0 */
.L__stack_usage = 0
.LVL28:
.LBB91:
.LBB92:
	.file 6 "../../LUFA/Drivers/USB/Class/Device/HID.h"
	.loc 6 201 0
	lds r24,Mouse_HID_Interface+11
	lds r25,Mouse_HID_Interface+11+1
	sbiw r24,0
	breq .L12
	.loc 6 202 0
	sbiw r24,1
	sts Mouse_HID_Interface+11+1,r25
	sts Mouse_HID_Interface+11,r24
.L12:
	ret
.LBE92:
.LBE91:
	.cfi_endproc
.LFE92:
	.size	EVENT_USB_Device_StartOfFrame, .-EVENT_USB_Device_StartOfFrame
	.section	.text.CALLBACK_HID_Device_CreateHIDReport,"ax",@progbits
.global	CALLBACK_HID_Device_CreateHIDReport
	.type	CALLBACK_HID_Device_CreateHIDReport, @function
CALLBACK_HID_Device_CreateHIDReport:
.LFB93:
	.loc 3 191 0
	.cfi_startproc
.LVL29:
	push r16
.LCFI2:
	.cfi_def_cfa_offset 3
	.cfi_offset 16, -2
	push r17
.LCFI3:
	.cfi_def_cfa_offset 4
	.cfi_offset 17, -3
/* prologue: function */
/* frame size = 0 */
/* stack size = 2 */
.L__stack_usage = 2
.LVL30:
	.loc 3 194 0
	lds r24,mouseReport
	lds r25,mouseReport+1
	lds r26,mouseReport+2
.LVL31:
	movw r30,r18
	st Z,r24
	std Z+1,r25
	std Z+2,r26
	.loc 3 196 0
	ldi r24,lo8(3)
	ldi r25,0
	movw r30,r16
	std Z+1,r25
	st Z,r24
	.loc 3 198 0
	ldi r24,0
/* epilogue start */
	pop r17
	pop r16
.LVL32:
	ret
	.cfi_endproc
.LFE93:
	.size	CALLBACK_HID_Device_CreateHIDReport, .-CALLBACK_HID_Device_CreateHIDReport
	.section	.text.CALLBACK_HID_Device_ProcessHIDReport,"ax",@progbits
.global	CALLBACK_HID_Device_ProcessHIDReport
	.type	CALLBACK_HID_Device_ProcessHIDReport, @function
CALLBACK_HID_Device_ProcessHIDReport:
.LFB94:
	.loc 3 213 0
	.cfi_startproc
.LVL33:
/* prologue: function */
/* frame size = 0 */
/* stack size = 0 */
.L__stack_usage = 0
	ret
	.cfi_endproc
.LFE94:
	.size	CALLBACK_HID_Device_ProcessHIDReport, .-CALLBACK_HID_Device_ProcessHIDReport
	.section	.text.__vector_23,"ax",@progbits
.global	__vector_23
	.type	__vector_23, @function
__vector_23:
.LFB95:
	.loc 3 221 0
	.cfi_startproc
	.loc 3 221 0
	push r1
.LCFI4:
	.cfi_def_cfa_offset 3
	.cfi_offset 1, -2
	push r0
.LCFI5:
	.cfi_def_cfa_offset 4
	.cfi_offset 0, -3
	in r0,__SREG__
	push r0
	clr __zero_reg__
	push r18
.LCFI6:
	.cfi_def_cfa_offset 5
	.cfi_offset 18, -4
	push r24
.LCFI7:
	.cfi_def_cfa_offset 6
	.cfi_offset 24, -5
	push r25
.LCFI8:
	.cfi_def_cfa_offset 7
	.cfi_offset 25, -6
	push r30
.LCFI9:
	.cfi_def_cfa_offset 8
	.cfi_offset 30, -7
	push r31
.LCFI10:
	.cfi_def_cfa_offset 9
	.cfi_offset 31, -8
/* prologue: Signal */
/* frame size = 0 */
/* stack size = 8 */
.L__stack_usage = 8
	.loc 3 222 0
	lds r24,206
.LVL34:
	.loc 3 224 0
	in r25,0x1e
	cpi r25,lo8(4)
	brne .L19
.LVL35:
.LBB100:
.LBB101:
	.loc 1 161 0
	lds r30,USARTtoUSB_Buffer+128
	lds r31,USARTtoUSB_Buffer+128+1
	st Z,r24
	.loc 1 163 0
	lds r30,USARTtoUSB_Buffer+128
	lds r31,USARTtoUSB_Buffer+128+1
	movw r24,r30
.LVL36:
	adiw r24,1
	sts USARTtoUSB_Buffer+128+1,r25
	sts USARTtoUSB_Buffer+128,r24
	subi r24,lo8(USARTtoUSB_Buffer+128)
	sbci r25,hi8(USARTtoUSB_Buffer+128)
	brne .L21
	.loc 1 164 0
	ldi r24,lo8(USARTtoUSB_Buffer)
	ldi r25,hi8(USARTtoUSB_Buffer)
	std Z+2,r25
	std Z+1,r24
.L21:
.LBB102:
	.loc 1 166 0
	in r25,__SREG__
.LVL37:
.LBB103:
.LBB104:
	.loc 2 50 0
/* #APP */
 ;  50 "/usr/lib/avr/include/util/atomic.h" 1
	cli
 ;  0 "" 2
.LVL38:
/* #NOAPP */
.LBE104:
.LBE103:
	.loc 1 168 0
	lds r24,USARTtoUSB_Buffer+132
	subi r24,lo8(-(1))
	sts USARTtoUSB_Buffer+132,r24
.LVL39:
.LBB105:
.LBB106:
	.loc 2 70 0
	out __SREG__,r25
	.loc 2 71 0
.LVL40:
.L19:
/* epilogue start */
.LBE106:
.LBE105:
.LBE102:
.LBE101:
.LBE100:
	.loc 3 226 0
	pop r31
	pop r30
	pop r25
	pop r24
	pop r18
	pop r0
	out __SREG__,r0
	pop r0
	pop r1
	reti
	.cfi_endproc
.LFE95:
	.size	__vector_23, .-__vector_23
	.comm	mouseReport,3,1
	.comm	USARTtoUSB_Buffer,133,1
.global	Mouse_HID_Interface
	.data
	.type	Mouse_HID_Interface, @object
	.size	Mouse_HID_Interface, 13
Mouse_HID_Interface:
	.byte	0
	.byte	1
	.word	8
	.byte	0
	.word	PrevMouseHIDReportBuffer
	.byte	3
	.zero	5
	.comm	PrevMouseHIDReportBuffer,3,1
	.text
.Letext0:
	.file 7 "/usr/lib/avr/include/stdint.h"
	.file 8 "../../LUFA/Drivers/USB/Class/Device/../Common/HID.h"
	.file 9 "../../LUFA/Drivers/USB/HighLevel/../LowLevel/USBController.h"
	.file 10 "../../LUFA/Drivers/USB/HighLevel/USBTask.h"